; Function Attrs: mustprogress uwtable
define noundef zeroext i1 @_ZNK32pxrInternal_v0_24__pxrReserved__7UsdPrim10IsInFamilyERKNS_7TfTokenE(ptr nocapture noundef nonnull readonly align 8 dereferenceable(32) %0, ptr noundef nonnull align 8 dereferenceable(8) %1) local_unnamed_addr #0 align 2 {
  %3 = getelementptr inbounds i8, ptr %0, i64 8
  %.val = load ptr, ptr %3, align 8
  %.not.i.i.i = icmp eq ptr %.val, null
  br i1 %.not.i.i.i, label %8, label %4

4:                                                ; preds = %2
  %5 = getelementptr inbounds nuw i8, ptr %.val, i64 56
  %6 = load i64, ptr %5, align 8
  %7 = and i64 %6, 2048
  %.not5.i.i.i = icmp eq i64 %7, 0
  br i1 %.not5.i.i.i, label %_ZNK32pxrInternal_v0_24__pxrReserved__7UsdPrim15GetPrimTypeInfoEv.exit.i, label %8

8:                                                ; preds = %4, %2
  tail call void @_ZN32pxrInternal_v0_24__pxrReserved__31Usd_ThrowExpiredPrimAccessErrorEPKNS_12Usd_PrimDataE(ptr noundef %.val)
  br label %_ZNK32pxrInternal_v0_24__pxrReserved__7UsdPrim15GetPrimTypeInfoEv.exit.i

_ZNK32pxrInternal_v0_24__pxrReserved__7UsdPrim15GetPrimTypeInfoEv.exit.i: ; preds = %8, %4
  %9 = getelementptr inbounds nuw i8, ptr %.val, i64 24
  %10 = load ptr, ptr %9, align 8
  %11 = getelementptr inbounds nuw i8, ptr %10, i64 40
  %12 = tail call noundef nonnull align 8 dereferenceable(24) ptr @_ZN32pxrInternal_v0_24__pxrReserved__17UsdSchemaRegistry23FindSchemaInfosInFamilyERKNS_7TfTokenE(ptr noundef nonnull align 8 dereferenceable(8) %1)
  %13 = load ptr, ptr %12, align 8
  %14 = getelementptr inbounds nuw i8, ptr %12, i64 8
  %15 = load ptr, ptr %14, align 8
  %.not5.i = icmp eq ptr %13, %15
  br i1 %.not5.i, label %_ZN32pxrInternal_v0_24__pxrReserved__L30_GetFirstSchemaInFamilyPrimIsAIJNS_7TfTokenEEEEPKNS_17UsdSchemaRegistry10SchemaInfoERKNS_7UsdPrimEDpRKT_.exit, label %.lr.ph.i

.lr.ph.i:                                         ; preds = %_ZNK32pxrInternal_v0_24__pxrReserved__7UsdPrim15GetPrimTypeInfoEv.exit.i, %22
  %.sroa.01.06.i = phi ptr [ %23, %22 ], [ %13, %_ZNK32pxrInternal_v0_24__pxrReserved__7UsdPrim15GetPrimTypeInfoEv.exit.i ]
  %16 = load ptr, ptr %.sroa.01.06.i, align 8
  %17 = getelementptr inbounds nuw i8, ptr %16, i64 8
  %.sroa.0.0.copyload.i = load ptr, ptr %17, align 8
  %18 = tail call noundef zeroext i1 @_ZNK32pxrInternal_v0_24__pxrReserved__6TfType3IsAES0_(ptr noundef nonnull align 8 dereferenceable(8) %11, ptr %.sroa.0.0.copyload.i)
  br i1 %18, label %19, label %22

19:                                               ; preds = %.lr.ph.i
  %20 = load ptr, ptr %.sroa.01.06.i, align 8
  %21 = icmp ne ptr %20, null
  br label %_ZN32pxrInternal_v0_24__pxrReserved__L30_GetFirstSchemaInFamilyPrimIsAIJNS_7TfTokenEEEEPKNS_17UsdSchemaRegistry10SchemaInfoERKNS_7UsdPrimEDpRKT_.exit

22:                                               ; preds = %.lr.ph.i
  %23 = getelementptr inbounds i8, ptr %.sroa.01.06.i, i64 8
  %.not.i = icmp eq ptr %23, %15
  br i1 %.not.i, label %_ZN32pxrInternal_v0_24__pxrReserved__L30_GetFirstSchemaInFamilyPrimIsAIJNS_7TfTokenEEEEPKNS_17UsdSchemaRegistry10SchemaInfoERKNS_7UsdPrimEDpRKT_.exit, label %.lr.ph.i

_ZN32pxrInternal_v0_24__pxrReserved__L30_GetFirstSchemaInFamilyPrimIsAIJNS_7TfTokenEEEEPKNS_17UsdSchemaRegistry10SchemaInfoERKNS_7UsdPrimEDpRKT_.exit: ; preds = %22, %_ZNK32pxrInternal_v0_24__pxrReserved__7UsdPrim15GetPrimTypeInfoEv.exit.i, %19
  %.0.i = phi i1 [ %21, %19 ], [ false, %_ZNK32pxrInternal_v0_24__pxrReserved__7UsdPrim15GetPrimTypeInfoEv.exit.i ], [ false, %22 ]
  ret i1 %.0.i
}